target datalayout = "e-m:e-p270:32:32-p271:32:32-p272:64:64-i64:64-i128:128-f80:128-n8:16:32:64-S128"
target triple = "x86_64-pc-linux-gnu"

%"class.gmx::internal::AnalysisDataStorageFrameData" = type <{ ptr, %"class.gmx::AnalysisDataFrameHeader", [4 x i8], %"class.std::vector.15", %"class.std::vector.20", %"class.std::unique_ptr.25", i32, [4 x i8] }>
%"class.gmx::AnalysisDataFrameHeader" = type { i32, float, float }
%"class.std::vector.15" = type { %"struct.std::_Vector_base.16" }
%"struct.std::_Vector_base.16" = type { %"struct.std::_Vector_base<gmx::AnalysisDataValue, std::allocator<gmx::AnalysisDataValue>>::_Vector_impl" }
%"struct.std::_Vector_base<gmx::AnalysisDataValue, std::allocator<gmx::AnalysisDataValue>>::_Vector_impl" = type { %"struct.std::_Vector_base<gmx::AnalysisDataValue, std::allocator<gmx::AnalysisDataValue>>::_Vector_impl_data" }
%"struct.std::_Vector_base<gmx::AnalysisDataValue, std::allocator<gmx::AnalysisDataValue>>::_Vector_impl_data" = type { ptr, ptr, ptr }
%"class.std::vector.20" = type { %"struct.std::_Vector_base.21" }
%"struct.std::_Vector_base.21" = type { %"struct.std::_Vector_base<gmx::AnalysisDataPointSetInfo, std::allocator<gmx::AnalysisDataPointSetInfo>>::_Vector_impl" }
%"struct.std::_Vector_base<gmx::AnalysisDataPointSetInfo, std::allocator<gmx::AnalysisDataPointSetInfo>>::_Vector_impl" = type { %"struct.std::_Vector_base<gmx::AnalysisDataPointSetInfo, std::allocator<gmx::AnalysisDataPointSetInfo>>::_Vector_impl_data" }
%"struct.std::_Vector_base<gmx::AnalysisDataPointSetInfo, std::allocator<gmx::AnalysisDataPointSetInfo>>::_Vector_impl_data" = type { ptr, ptr, ptr }
%"class.std::unique_ptr.25" = type { %"struct.std::__uniq_ptr_data.26" }
%"struct.std::__uniq_ptr_data.26" = type { %"class.std::__uniq_ptr_impl.27" }
%"class.std::__uniq_ptr_impl.27" = type { %"class.std::tuple.28" }
%"class.std::tuple.28" = type { %"struct.std::_Tuple_impl.29" }
%"struct.std::_Tuple_impl.29" = type { %"struct.std::_Head_base.32" }
%"struct.std::_Head_base.32" = type { ptr }
%"class.gmx::AnalysisDataPointSetRef" = type { %"class.gmx::AnalysisDataFrameHeader", i32, i32, %"class.gmx::ArrayRef" }
%"class.gmx::ArrayRef" = type { %"struct.gmx::ArrayRefIter", %"struct.gmx::ArrayRefIter" }
%"struct.gmx::ArrayRefIter" = type { ptr }
%"class.gmx::AnalysisDataPointSetInfo" = type { i32, i32, i32, i32 }
%"class.gmx::AnalysisDataValue" = type { float, float, %"class.gmx::FlagsTemplate" }
%"class.gmx::FlagsTemplate" = type { i64 }

; Function Attrs: mustprogress nounwind uwtable
define linkonce_odr noundef ptr @_ZNKSt6vectorIN3gmx17AnalysisDataValueESaIS1_EE11_M_data_ptrIS1_EEPT_S6_(ptr noundef nonnull align 8 dereferenceable(24) %0, ptr noundef %1) #0 comdat align 2 {
  %3 = alloca ptr, align 8
  %4 = alloca ptr, align 8
  store ptr %0, ptr %3, align 8
  store ptr %1, ptr %4, align 8
  %5 = load ptr, ptr %4, align 8
  ret ptr %5
}

; Function Attrs: mustprogress nounwind uwtable
define linkonce_odr noundef i64 @_ZNKSt6vectorIN3gmx17AnalysisDataValueESaIS1_EE4sizeEv(ptr noundef nonnull align 8 dereferenceable(24) %0) #0 comdat align 2 {
  %2 = alloca ptr, align 8
  store ptr %0, ptr %2, align 8
  %3 = load ptr, ptr %2, align 8
  %4 = getelementptr inbounds %"struct.std::_Vector_base.16", ptr %3, i32 0, i32 0
  %5 = getelementptr inbounds %"struct.std::_Vector_base<gmx::AnalysisDataValue, std::allocator<gmx::AnalysisDataValue>>::_Vector_impl_data", ptr %4, i32 0, i32 1
  %6 = load ptr, ptr %5, align 8
  %7 = getelementptr inbounds %"struct.std::_Vector_base.16", ptr %3, i32 0, i32 0
  %8 = getelementptr inbounds %"struct.std::_Vector_base<gmx::AnalysisDataValue, std::allocator<gmx::AnalysisDataValue>>::_Vector_impl_data", ptr %7, i32 0, i32 0
  %9 = load ptr, ptr %8, align 8
  %10 = ptrtoint ptr %6 to i64
  %11 = ptrtoint ptr %9 to i64
  %12 = sub i64 %10, %11
  %13 = sdiv exact i64 %12, 16
  ret i64 %13
}

; Function Attrs: mustprogress nounwind uwtable
define linkonce_odr void @_ZN3gmx12ArrayRefIterIKNS_17AnalysisDataValueEEC2EPS2_(ptr noundef nonnull align 8 dereferenceable(8) %0, ptr noundef %1) unnamed_addr #0 comdat align 2 {
  %3 = alloca ptr, align 8
  %4 = alloca ptr, align 8
  store ptr %0, ptr %3, align 8
  store ptr %1, ptr %4, align 8
  %5 = load ptr, ptr %3, align 8
  %6 = getelementptr inbounds %"struct.gmx::ArrayRefIter", ptr %5, i32 0, i32 0
  %7 = load ptr, ptr %4, align 8
  store ptr %7, ptr %6, align 8
  ret void
}

; Function Attrs: mustprogress nounwind uwtable
define linkonce_odr noundef ptr @_ZNKSt6vectorIN3gmx17AnalysisDataValueESaIS1_EE4dataEv(ptr noundef nonnull align 8 dereferenceable(24) %0) #0 comdat align 2 {
  %2 = alloca ptr, align 8
  store ptr %0, ptr %2, align 8
  %3 = load ptr, ptr %2, align 8
  %4 = getelementptr inbounds %"struct.std::_Vector_base.16", ptr %3, i32 0, i32 0
  %5 = getelementptr inbounds %"struct.std::_Vector_base<gmx::AnalysisDataValue, std::allocator<gmx::AnalysisDataValue>>::_Vector_impl_data", ptr %4, i32 0, i32 0
  %6 = load ptr, ptr %5, align 8
  %7 = call noundef ptr @_ZNKSt6vectorIN3gmx17AnalysisDataValueESaIS1_EE11_M_data_ptrIS1_EEPT_S6_(ptr noundef nonnull align 8 dereferenceable(24) %3, ptr noundef %6) #12
  ret ptr %7
}

; Function Attrs: mustprogress nounwind uwtable
define linkonce_odr void @_ZN3gmx8ArrayRefIKNS_17AnalysisDataValueEEC2IRKSt6vectorIS1_SaIS1_EEvEEOT_(ptr noundef nonnull align 8 dereferenceable(16) %0, ptr noundef nonnull align 8 dereferenceable(24) %1) unnamed_addr #0 comdat align 2 {
  %3 = alloca ptr, align 8
  %4 = alloca ptr, align 8
  store ptr %0, ptr %3, align 8
  store ptr %1, ptr %4, align 8
  %5 = load ptr, ptr %3, align 8
  %6 = getelementptr inbounds %"class.gmx::ArrayRef", ptr %5, i32 0, i32 0
  %7 = load ptr, ptr %4, align 8
  %8 = call noundef ptr @_ZNKSt6vectorIN3gmx17AnalysisDataValueESaIS1_EE4dataEv(ptr noundef nonnull align 8 dereferenceable(24) %7) #12
  call void @_ZN3gmx12ArrayRefIterIKNS_17AnalysisDataValueEEC2EPS2_(ptr noundef nonnull align 8 dereferenceable(8) %6, ptr noundef %8) #12
  %9 = getelementptr inbounds %"class.gmx::ArrayRef", ptr %5, i32 0, i32 1
  %10 = load ptr, ptr %4, align 8
  %11 = call noundef ptr @_ZNKSt6vectorIN3gmx17AnalysisDataValueESaIS1_EE4dataEv(ptr noundef nonnull align 8 dereferenceable(24) %10) #12
  %12 = load ptr, ptr %4, align 8
  %13 = call noundef i64 @_ZNKSt6vectorIN3gmx17AnalysisDataValueESaIS1_EE4sizeEv(ptr noundef nonnull align 8 dereferenceable(24) %12) #12
  %14 = getelementptr inbounds %"class.gmx::AnalysisDataValue", ptr %11, i64 %13
  call void @_ZN3gmx12ArrayRefIterIKNS_17AnalysisDataValueEEC2EPS2_(ptr noundef nonnull align 8 dereferenceable(8) %9, ptr noundef %14) #12
  ret void
}

; Function Attrs: mustprogress nounwind uwtable
define linkonce_odr noundef nonnull align 4 dereferenceable(16) ptr @_ZNKSt6vectorIN3gmx24AnalysisDataPointSetInfoESaIS1_EEixEm(ptr noundef nonnull align 8 dereferenceable(24) %0, i64 noundef %1) #0 comdat align 2 {
  %3 = alloca ptr, align 8
  %4 = alloca i64, align 8
  store ptr %0, ptr %3, align 8
  store i64 %1, ptr %4, align 8
  %5 = load ptr, ptr %3, align 8
  %6 = getelementptr inbounds %"struct.std::_Vector_base.21", ptr %5, i32 0, i32 0
  %7 = getelementptr inbounds %"struct.std::_Vector_base<gmx::AnalysisDataPointSetInfo, std::allocator<gmx::AnalysisDataPointSetInfo>>::_Vector_impl_data", ptr %6, i32 0, i32 0
  %8 = load ptr, ptr %7, align 8
  %9 = load i64, ptr %4, align 8
  %10 = getelementptr inbounds %"class.gmx::AnalysisDataPointSetInfo", ptr %8, i64 %9
  ret ptr %10
}

; Function Attrs: mustprogress uwtable
define void @_ZNK3gmx8internal28AnalysisDataStorageFrameData8pointSetEi(ptr dead_on_unwind noalias writable sret(%"class.gmx::AnalysisDataPointSetRef") align 8 %0, ptr noundef nonnull align 8 dereferenceable(84) %1, i32 noundef %2) #1 align 2 {
  %4 = alloca ptr, align 8
  %5 = alloca i32, align 4
  %6 = alloca %"class.gmx::ArrayRef", align 8
  store ptr %1, ptr %4, align 8
  store i32 %2, ptr %5, align 4
  %7 = load ptr, ptr %4, align 8
  %8 = getelementptr inbounds %"class.gmx::internal::AnalysisDataStorageFrameData", ptr %7, i32 0, i32 1
  %9 = getelementptr inbounds %"class.gmx::internal::AnalysisDataStorageFrameData", ptr %7, i32 0, i32 4
  %10 = load i32, ptr %5, align 4
  %11 = sext i32 %10 to i64
  %12 = call noundef nonnull align 4 dereferenceable(16) ptr @_ZNKSt6vectorIN3gmx24AnalysisDataPointSetInfoESaIS1_EEixEm(ptr noundef nonnull align 8 dereferenceable(24) %9, i64 noundef %11) #12
  %13 = getelementptr inbounds %"class.gmx::internal::AnalysisDataStorageFrameData", ptr %7, i32 0, i32 3
  call void @_ZN3gmx8ArrayRefIKNS_17AnalysisDataValueEEC2IRKSt6vectorIS1_SaIS1_EEvEEOT_(ptr noundef nonnull align 8 dereferenceable(16) %6, ptr noundef nonnull align 8 dereferenceable(24) %13)
  call void @_ZN3gmx23AnalysisDataPointSetRefC1ERKNS_23AnalysisDataFrameHeaderERKNS_24AnalysisDataPointSetInfoERKNS_8ArrayRefIKNS_17AnalysisDataValueEEE(ptr noundef nonnull align 8 dereferenceable(40) %0, ptr noundef nonnull align 4 dereferenceable(12) %8, ptr noundef nonnull align 4 dereferenceable(16) %12, ptr noundef nonnull align 8 dereferenceable(16) %6)
  ret void
}