; Function Attrs: mustprogress uwtable
define void @_ZNK3gmx8internal28AnalysisDataStorageFrameData8pointSetEi(ptr dead_on_unwind noalias nonnull writable sret(%"class.gmx::AnalysisDataPointSetRef") align 8 %0, ptr noundef nonnull align 8 dereferenceable(84) %1, i32 noundef %2) local_unnamed_addr #1 align 2 {
  %4 = alloca %"class.gmx::ArrayRef", align 8
  %5 = getelementptr inbounds i8, ptr %1, i64 8
  %6 = getelementptr inbounds i8, ptr %1, i64 48
  %7 = sext i32 %2 to i64
  %8 = load ptr, ptr %6, align 8
  %9 = getelementptr inbounds %"class.gmx::AnalysisDataPointSetInfo", ptr %8, i64 %7
  %10 = getelementptr inbounds i8, ptr %1, i64 24
  %11 = load ptr, ptr %10, align 8
  store ptr %11, ptr %4, align 8
  %12 = getelementptr inbounds i8, ptr %4, i64 8
  %13 = getelementptr inbounds i8, ptr %1, i64 32
  %14 = load ptr, ptr %13, align 8
  %15 = ptrtoint ptr %14 to i64
  %16 = ptrtoint ptr %11 to i64
  %17 = sub i64 %15, %16
  %18 = getelementptr inbounds i8, ptr %11, i64 %17
  store ptr %18, ptr %12, align 8
  call void @_ZN3gmx23AnalysisDataPointSetRefC1ERKNS_23AnalysisDataFrameHeaderERKNS_24AnalysisDataPointSetInfoERKNS_8ArrayRefIKNS_17AnalysisDataValueEEE(ptr noundef nonnull align 8 dereferenceable(40) %0, ptr noundef nonnull align 4 dereferenceable(12) %5, ptr noundef nonnull align 4 dereferenceable(16) %9, ptr noundef nonnull align 8 dereferenceable(16) %4)
  ret void
}